target datalayout = "e-m:e-p270:32:32-p271:32:32-p272:64:64-i64:64-i128:128-f80:128-n8:16:32:64-S128"
target triple = "x86_64-pc-linux-gnu"

%"class.pbrt::Point3" = type { %"class.pbrt::Tuple3" }
%"class.pbrt::Tuple3" = type { float, float, float }
%"class.pbrt::Vector3" = type { %"class.pbrt::Tuple3.0" }
%"class.pbrt::Tuple3.0" = type { float, float, float }

; Function Attrs: mustprogress nounwind uwtable
define linkonce_odr dso_local void @_ZN4pbrt6Tuple3INS_6Point3EfEC2Efff(ptr noundef nonnull align 4 dereferenceable(12) %0, float noundef %1, float noundef %2, float noundef %3) unnamed_addr #9 comdat align 2 {
  %5 = alloca ptr, align 8
  %6 = alloca float, align 4
  %7 = alloca float, align 4
  %8 = alloca float, align 4
  store ptr %0, ptr %5, align 8, !tbaa !32
  store float %1, ptr %6, align 4, !tbaa !4
  store float %2, ptr %7, align 4, !tbaa !4
  store float %3, ptr %8, align 4, !tbaa !4
  %9 = load ptr, ptr %5, align 8
  %10 = getelementptr inbounds nuw %"class.pbrt::Tuple3", ptr %9, i32 0, i32 0
  %11 = load float, ptr %6, align 4, !tbaa !4
  store float %11, ptr %10, align 4, !tbaa !10
  %12 = getelementptr inbounds nuw %"class.pbrt::Tuple3", ptr %9, i32 0, i32 1
  %13 = load float, ptr %7, align 4, !tbaa !4
  store float %13, ptr %12, align 4, !tbaa !12
  %14 = getelementptr inbounds nuw %"class.pbrt::Tuple3", ptr %9, i32 0, i32 2
  %15 = load float, ptr %8, align 4, !tbaa !4
  store float %15, ptr %14, align 4, !tbaa !13
  br label %16

16:                                               ; preds = %4
  br label %17

17:                                               ; preds = %16
  ret void
}

; Function Attrs: mustprogress nounwind uwtable
define linkonce_odr dso_local void @_ZN4pbrt6Tuple3INS_7Vector3EfEC2Efff(ptr noundef nonnull align 4 dereferenceable(12) %0, float noundef %1, float noundef %2, float noundef %3) unnamed_addr #9 comdat align 2 {
  %5 = alloca ptr, align 8
  %6 = alloca float, align 4
  %7 = alloca float, align 4
  %8 = alloca float, align 4
  store ptr %0, ptr %5, align 8, !tbaa !23
  store float %1, ptr %6, align 4, !tbaa !4
  store float %2, ptr %7, align 4, !tbaa !4
  store float %3, ptr %8, align 4, !tbaa !4
  %9 = load ptr, ptr %5, align 8
  %10 = getelementptr inbounds nuw %"class.pbrt::Tuple3.0", ptr %9, i32 0, i32 0
  %11 = load float, ptr %6, align 4, !tbaa !4
  store float %11, ptr %10, align 4, !tbaa !17
  %12 = getelementptr inbounds nuw %"class.pbrt::Tuple3.0", ptr %9, i32 0, i32 1
  %13 = load float, ptr %7, align 4, !tbaa !4
  store float %13, ptr %12, align 4, !tbaa !19
  %14 = getelementptr inbounds nuw %"class.pbrt::Tuple3.0", ptr %9, i32 0, i32 2
  %15 = load float, ptr %8, align 4, !tbaa !4
  store float %15, ptr %14, align 4, !tbaa !20
  br label %16

16:                                               ; preds = %4
  br label %17

17:                                               ; preds = %16
  ret void
}

; Function Attrs: mustprogress uwtable
define linkonce_odr dso_local { <2 x float>, float } @_ZNK4pbrt6Tuple3INS_7Vector3EfEdvIfEENS1_IDTdvtlfEtlT_EEEES4_(ptr noundef nonnull align 4 dereferenceable(12) %0, float noundef %1) #0 comdat align 2 {
  %3 = alloca %"class.pbrt::Vector3", align 4
  %4 = alloca ptr, align 8
  %5 = alloca float, align 4
  %6 = alloca { <2 x float>, float }, align 8
  store ptr %0, ptr %4, align 8, !tbaa !23
  store float %1, ptr %5, align 4, !tbaa !4
  %7 = load ptr, ptr %4, align 8
  br label %8

8:                                                ; preds = %2
  br label %9

9:                                                ; preds = %8
  %10 = getelementptr inbounds nuw %"class.pbrt::Tuple3.0", ptr %7, i32 0, i32 0
  %11 = load float, ptr %10, align 4, !tbaa !17
  %12 = load float, ptr %5, align 4, !tbaa !4
  %13 = fdiv float %11, %12
  %14 = getelementptr inbounds nuw %"class.pbrt::Tuple3.0", ptr %7, i32 0, i32 1
  %15 = load float, ptr %14, align 4, !tbaa !19
  %16 = load float, ptr %5, align 4, !tbaa !4
  %17 = fdiv float %15, %16
  %18 = getelementptr inbounds nuw %"class.pbrt::Tuple3.0", ptr %7, i32 0, i32 2
  %19 = load float, ptr %18, align 4, !tbaa !20
  %20 = load float, ptr %5, align 4, !tbaa !4
  %21 = fdiv float %19, %20
  call void @_ZN4pbrt7Vector3IfEC2Efff(ptr noundef nonnull align 4 dereferenceable(12) %3, float noundef %13, float noundef %17, float noundef %21)
  %22 = getelementptr inbounds nuw %"class.pbrt::Vector3", ptr %3, i32 0, i32 0
  call void @llvm.memcpy.p0.p0.i64(ptr align 8 %6, ptr align 4 %22, i64 12, i1 false)
  %23 = load { <2 x float>, float }, ptr %6, align 8
  ret { <2 x float>, float } %23
}

; Function Attrs: mustprogress uwtable
define linkonce_odr dso_local { <2 x float>, float } @_ZNK4pbrt6Point3IfEmiIfEENS_7Vector3IDTmitlfEtlT_EEEENS0_IS4_EE(ptr noundef nonnull align 4 dereferenceable(12) %0, <2 x float> %1, float %2) #4 comdat align 2 {
  %4 = alloca %"class.pbrt::Vector3", align 4
  %5 = alloca %"class.pbrt::Point3", align 4
  %6 = alloca { <2 x float>, float }, align 4
  %7 = alloca ptr, align 8
  %8 = alloca { <2 x float>, float }, align 8
  %9 = getelementptr inbounds nuw { <2 x float>, float }, ptr %6, i32 0, i32 0
  store <2 x float> %1, ptr %9, align 4
  %10 = getelementptr inbounds nuw { <2 x float>, float }, ptr %6, i32 0, i32 1
  store float %2, ptr %10, align 4
  call void @llvm.memcpy.p0.p0.i64(ptr align 4 %5, ptr align 4 %6, i64 12, i1 false)
  store ptr %0, ptr %7, align 8, !tbaa !14
  %11 = load ptr, ptr %7, align 8
  br label %12

12:                                               ; preds = %3
  br label %13

13:                                               ; preds = %12
  %14 = getelementptr inbounds nuw %"class.pbrt::Tuple3", ptr %11, i32 0, i32 0
  %15 = load float, ptr %14, align 4, !tbaa !10
  %16 = getelementptr inbounds nuw %"class.pbrt::Tuple3", ptr %5, i32 0, i32 0
  %17 = load float, ptr %16, align 4, !tbaa !10
  %18 = fsub float %15, %17
  %19 = getelementptr inbounds nuw %"class.pbrt::Tuple3", ptr %11, i32 0, i32 1
  %20 = load float, ptr %19, align 4, !tbaa !12
  %21 = getelementptr inbounds nuw %"class.pbrt::Tuple3", ptr %5, i32 0, i32 1
  %22 = load float, ptr %21, align 4, !tbaa !12
  %23 = fsub float %20, %22
  %24 = getelementptr inbounds nuw %"class.pbrt::Tuple3", ptr %11, i32 0, i32 2
  %25 = load float, ptr %24, align 4, !tbaa !13
  %26 = getelementptr inbounds nuw %"class.pbrt::Tuple3", ptr %5, i32 0, i32 2
  %27 = load float, ptr %26, align 4, !tbaa !13
  %28 = fsub float %25, %27
  call void @_ZN4pbrt7Vector3IfEC2Efff(ptr noundef nonnull align 4 dereferenceable(12) %4, float noundef %18, float noundef %23, float noundef %28)
  %29 = getelementptr inbounds nuw %"class.pbrt::Vector3", ptr %4, i32 0, i32 0
  call void @llvm.memcpy.p0.p0.i64(ptr align 8 %8, ptr align 4 %29, i64 12, i1 false)
  %30 = load { <2 x float>, float }, ptr %8, align 8
  ret { <2 x float>, float } %30
}

; Function Attrs: mustprogress uwtable
define linkonce_odr dso_local void @_ZN4pbrt6Point3IfEC2Efff(ptr noundef nonnull align 4 dereferenceable(12) %0, float noundef %1, float noundef %2, float noundef %3) unnamed_addr #0 comdat align 2 {
  %5 = alloca ptr, align 8
  %6 = alloca float, align 4
  %7 = alloca float, align 4
  %8 = alloca float, align 4
  store ptr %0, ptr %5, align 8, !tbaa !14
  store float %1, ptr %6, align 4, !tbaa !4
  store float %2, ptr %7, align 4, !tbaa !4
  store float %3, ptr %8, align 4, !tbaa !4
  %9 = load ptr, ptr %5, align 8
  %10 = load float, ptr %6, align 4, !tbaa !4
  %11 = load float, ptr %7, align 4, !tbaa !4
  %12 = load float, ptr %8, align 4, !tbaa !4
  call void @_ZN4pbrt6Tuple3INS_6Point3EfEC2Efff(ptr noundef nonnull align 4 dereferenceable(12) %9, float noundef %10, float noundef %11, float noundef %12)
  ret void
}

; Function Attrs: mustprogress uwtable
define linkonce_odr dso_local { <2 x float>, float } @_ZNK4pbrt6Point3IfEplIfEENS0_IDTpltlfEtlT_EEEENS_7Vector3IS3_EE(ptr noundef nonnull align 4 dereferenceable(12) %0, <2 x float> %1, float %2) #4 comdat align 2 {
  %4 = alloca %"class.pbrt::Point3", align 4
  %5 = alloca %"class.pbrt::Vector3", align 4
  %6 = alloca { <2 x float>, float }, align 4
  %7 = alloca ptr, align 8
  %8 = alloca { <2 x float>, float }, align 8
  %9 = getelementptr inbounds nuw { <2 x float>, float }, ptr %6, i32 0, i32 0
  store <2 x float> %1, ptr %9, align 4
  %10 = getelementptr inbounds nuw { <2 x float>, float }, ptr %6, i32 0, i32 1
  store float %2, ptr %10, align 4
  call void @llvm.memcpy.p0.p0.i64(ptr align 4 %5, ptr align 4 %6, i64 12, i1 false)
  store ptr %0, ptr %7, align 8, !tbaa !14
  %11 = load ptr, ptr %7, align 8
  br label %12

12:                                               ; preds = %3
  br label %13

13:                                               ; preds = %12
  %14 = getelementptr inbounds nuw %"class.pbrt::Tuple3", ptr %11, i32 0, i32 0
  %15 = load float, ptr %14, align 4, !tbaa !10
  %16 = getelementptr inbounds nuw %"class.pbrt::Tuple3.0", ptr %5, i32 0, i32 0
  %17 = load float, ptr %16, align 4, !tbaa !17
  %18 = fadd float %15, %17
  %19 = getelementptr inbounds nuw %"class.pbrt::Tuple3", ptr %11, i32 0, i32 1
  %20 = load float, ptr %19, align 4, !tbaa !12
  %21 = getelementptr inbounds nuw %"class.pbrt::Tuple3.0", ptr %5, i32 0, i32 1
  %22 = load float, ptr %21, align 4, !tbaa !19
  %23 = fadd float %20, %22
  %24 = getelementptr inbounds nuw %"class.pbrt::Tuple3", ptr %11, i32 0, i32 2
  %25 = load float, ptr %24, align 4, !tbaa !13
  %26 = getelementptr inbounds nuw %"class.pbrt::Tuple3.0", ptr %5, i32 0, i32 2
  %27 = load float, ptr %26, align 4, !tbaa !20
  %28 = fadd float %25, %27
  call void @_ZN4pbrt6Point3IfEC2Efff(ptr noundef nonnull align 4 dereferenceable(12) %4, float noundef %18, float noundef %23, float noundef %28)
  %29 = getelementptr inbounds nuw %"class.pbrt::Point3", ptr %4, i32 0, i32 0
  call void @llvm.memcpy.p0.p0.i64(ptr align 8 %8, ptr align 4 %29, i64 12, i1 false)
  %30 = load { <2 x float>, float }, ptr %8, align 8
  ret { <2 x float>, float } %30
}

; Function Attrs: mustprogress uwtable
define linkonce_odr dso_local void @_ZN4pbrt7Vector3IfEC2Efff(ptr noundef nonnull align 4 dereferenceable(12) %0, float noundef %1, float noundef %2, float noundef %3) unnamed_addr #0 comdat align 2 {
  %5 = alloca ptr, align 8
  %6 = alloca float, align 4
  %7 = alloca float, align 4
  %8 = alloca float, align 4
  store ptr %0, ptr %5, align 8, !tbaa !21
  store float %1, ptr %6, align 4, !tbaa !4
  store float %2, ptr %7, align 4, !tbaa !4
  store float %3, ptr %8, align 4, !tbaa !4
  %9 = load ptr, ptr %5, align 8
  %10 = load float, ptr %6, align 4, !tbaa !4
  %11 = load float, ptr %7, align 4, !tbaa !4
  %12 = load float, ptr %8, align 4, !tbaa !4
  call void @_ZN4pbrt6Tuple3INS_7Vector3EfEC2Efff(ptr noundef nonnull align 4 dereferenceable(12) %9, float noundef %10, float noundef %11, float noundef %12)
  ret void
}

; Function Attrs: mustprogress uwtable
define dso_local noundef float @_ZN4pbrt5NoiseENS_6Point3IfEE(<2 x float> %0, float %1) #4 {
  %3 = alloca %"class.pbrt::Point3", align 4
  %4 = alloca { <2 x float>, float }, align 4
  %5 = getelementptr inbounds nuw { <2 x float>, float }, ptr %4, i32 0, i32 0
  store <2 x float> %0, ptr %5, align 4
  %6 = getelementptr inbounds nuw { <2 x float>, float }, ptr %4, i32 0, i32 1
  store float %1, ptr %6, align 4
  call void @llvm.memcpy.p0.p0.i64(ptr align 4 %3, ptr align 4 %4, i64 12, i1 false)
  %7 = getelementptr inbounds nuw %"class.pbrt::Tuple3", ptr %3, i32 0, i32 0
  %8 = load float, ptr %7, align 4, !tbaa !10
  %9 = getelementptr inbounds nuw %"class.pbrt::Tuple3", ptr %3, i32 0, i32 1
  %10 = load float, ptr %9, align 4, !tbaa !12
  %11 = getelementptr inbounds nuw %"class.pbrt::Tuple3", ptr %3, i32 0, i32 2
  %12 = load float, ptr %11, align 4, !tbaa !13
  %13 = call noundef float @_ZN4pbrt5NoiseEfff(float noundef %8, float noundef %10, float noundef %12)
  ret float %13
}

; Function Attrs: mustprogress uwtable
define dso_local { <2 x float>, float } @_ZN4pbrt6DNoiseENS_6Point3IfEE(<2 x float> %0, float %1) #4 {
  %3 = alloca %"class.pbrt::Vector3", align 4
  %4 = alloca %"class.pbrt::Point3", align 4
  %5 = alloca { <2 x float>, float }, align 4
  %6 = alloca float, align 4
  %7 = alloca float, align 4
  %8 = alloca %"class.pbrt::Point3", align 4
  %9 = alloca { <2 x float>, float }, align 4
  %10 = alloca %"class.pbrt::Point3", align 4
  %11 = alloca %"class.pbrt::Point3", align 4
  %12 = alloca %"class.pbrt::Vector3", align 4
  %13 = alloca { <2 x float>, float }, align 4
  %14 = alloca { <2 x float>, float }, align 8
  %15 = alloca { <2 x float>, float }, align 4
  %16 = alloca %"class.pbrt::Point3", align 4
  %17 = alloca %"class.pbrt::Vector3", align 4
  %18 = alloca { <2 x float>, float }, align 4
  %19 = alloca { <2 x float>, float }, align 8
  %20 = alloca { <2 x float>, float }, align 4
  %21 = alloca %"class.pbrt::Point3", align 4
  %22 = alloca %"class.pbrt::Vector3", align 4
  %23 = alloca { <2 x float>, float }, align 4
  %24 = alloca { <2 x float>, float }, align 8
  %25 = alloca { <2 x float>, float }, align 4
  %26 = alloca %"class.pbrt::Vector3", align 4
  %27 = alloca %"class.pbrt::Point3", align 4
  %28 = alloca { <2 x float>, float }, align 4
  %29 = alloca { <2 x float>, float }, align 8
  %30 = alloca { <2 x float>, float }, align 8
  %31 = alloca { <2 x float>, float }, align 8
  %32 = getelementptr inbounds nuw { <2 x float>, float }, ptr %5, i32 0, i32 0
  store <2 x float> %0, ptr %32, align 4
  %33 = getelementptr inbounds nuw { <2 x float>, float }, ptr %5, i32 0, i32 1
  store float %1, ptr %33, align 4
  call void @llvm.memcpy.p0.p0.i64(ptr align 4 %4, ptr align 4 %5, i64 12, i1 false)
  call void @llvm.lifetime.start.p0(i64 4, ptr %6) #10
  store float 0x3F847AE140000000, ptr %6, align 4, !tbaa !4
  call void @llvm.lifetime.start.p0(i64 4, ptr %7) #10
  call void @llvm.memcpy.p0.p0.i64(ptr align 4 %8, ptr align 4 %4, i64 12, i1 false)
  call void @llvm.memcpy.p0.p0.i64(ptr align 4 %9, ptr align 4 %8, i64 12, i1 false)
  %34 = getelementptr inbounds nuw { <2 x float>, float }, ptr %9, i32 0, i32 0
  %35 = load <2 x float>, ptr %34, align 4
  %36 = getelementptr inbounds nuw { <2 x float>, float }, ptr %9, i32 0, i32 1
  %37 = load float, ptr %36, align 4
  %38 = call noundef float @_ZN4pbrt5NoiseENS_6Point3IfEE(<2 x float> %35, float %37)
  store float %38, ptr %7, align 4, !tbaa !4
  call void @llvm.lifetime.start.p0(i64 12, ptr %10) #10
  %39 = load float, ptr %6, align 4, !tbaa !4
  call void @_ZN4pbrt7Vector3IfEC2Efff(ptr noundef nonnull align 4 dereferenceable(12) %12, float noundef %39, float noundef 0.000000e+00, float noundef 0.000000e+00)
  call void @llvm.memcpy.p0.p0.i64(ptr align 4 %13, ptr align 4 %12, i64 12, i1 false)
  %40 = getelementptr inbounds nuw { <2 x float>, float }, ptr %13, i32 0, i32 0
  %41 = load <2 x float>, ptr %40, align 4
  %42 = getelementptr inbounds nuw { <2 x float>, float }, ptr %13, i32 0, i32 1
  %43 = load float, ptr %42, align 4
  %44 = call { <2 x float>, float } @_ZNK4pbrt6Point3IfEplIfEENS0_IDTpltlfEtlT_EEEENS_7Vector3IS3_EE(ptr noundef nonnull align 4 dereferenceable(12) %4, <2 x float> %41, float %43)
  %45 = getelementptr inbounds nuw %"class.pbrt::Point3", ptr %11, i32 0, i32 0
  store { <2 x float>, float } %44, ptr %14, align 8
  call void @llvm.memcpy.p0.p0.i64(ptr align 4 %45, ptr align 8 %14, i64 12, i1 false)
  call void @llvm.memcpy.p0.p0.i64(ptr align 4 %15, ptr align 4 %11, i64 12, i1 false)
  %46 = getelementptr inbounds nuw { <2 x float>, float }, ptr %15, i32 0, i32 0
  %47 = load <2 x float>, ptr %46, align 4
  %48 = getelementptr inbounds nuw { <2 x float>, float }, ptr %15, i32 0, i32 1
  %49 = load float, ptr %48, align 4
  %50 = call noundef float @_ZN4pbrt5NoiseENS_6Point3IfEE(<2 x float> %47, float %49)
  %51 = load float, ptr %6, align 4, !tbaa !4
  call void @_ZN4pbrt7Vector3IfEC2Efff(ptr noundef nonnull align 4 dereferenceable(12) %17, float noundef 0.000000e+00, float noundef %51, float noundef 0.000000e+00)
  call void @llvm.memcpy.p0.p0.i64(ptr align 4 %18, ptr align 4 %17, i64 12, i1 false)
  %52 = getelementptr inbounds nuw { <2 x float>, float }, ptr %18, i32 0, i32 0
  %53 = load <2 x float>, ptr %52, align 4
  %54 = getelementptr inbounds nuw { <2 x float>, float }, ptr %18, i32 0, i32 1
  %55 = load float, ptr %54, align 4
  %56 = call { <2 x float>, float } @_ZNK4pbrt6Point3IfEplIfEENS0_IDTpltlfEtlT_EEEENS_7Vector3IS3_EE(ptr noundef nonnull align 4 dereferenceable(12) %4, <2 x float> %53, float %55)
  %57 = getelementptr inbounds nuw %"class.pbrt::Point3", ptr %16, i32 0, i32 0
  store { <2 x float>, float } %56, ptr %19, align 8
  call void @llvm.memcpy.p0.p0.i64(ptr align 4 %57, ptr align 8 %19, i64 12, i1 false)
  call void @llvm.memcpy.p0.p0.i64(ptr align 4 %20, ptr align 4 %16, i64 12, i1 false)
  %58 = getelementptr inbounds nuw { <2 x float>, float }, ptr %20, i32 0, i32 0
  %59 = load <2 x float>, ptr %58, align 4
  %60 = getelementptr inbounds nuw { <2 x float>, float }, ptr %20, i32 0, i32 1
  %61 = load float, ptr %60, align 4
  %62 = call noundef float @_ZN4pbrt5NoiseENS_6Point3IfEE(<2 x float> %59, float %61)
  %63 = load float, ptr %6, align 4, !tbaa !4
  call void @_ZN4pbrt7Vector3IfEC2Efff(ptr noundef nonnull align 4 dereferenceable(12) %22, float noundef 0.000000e+00, float noundef 0.000000e+00, float noundef %63)
  call void @llvm.memcpy.p0.p0.i64(ptr align 4 %23, ptr align 4 %22, i64 12, i1 false)
  %64 = getelementptr inbounds nuw { <2 x float>, float }, ptr %23, i32 0, i32 0
  %65 = load <2 x float>, ptr %64, align 4
  %66 = getelementptr inbounds nuw { <2 x float>, float }, ptr %23, i32 0, i32 1
  %67 = load float, ptr %66, align 4
  %68 = call { <2 x float>, float } @_ZNK4pbrt6Point3IfEplIfEENS0_IDTpltlfEtlT_EEEENS_7Vector3IS3_EE(ptr noundef nonnull align 4 dereferenceable(12) %4, <2 x float> %65, float %67)
  %69 = getelementptr inbounds nuw %"class.pbrt::Point3", ptr %21, i32 0, i32 0
  store { <2 x float>, float } %68, ptr %24, align 8
  call void @llvm.memcpy.p0.p0.i64(ptr align 4 %69, ptr align 8 %24, i64 12, i1 false)
  call void @llvm.memcpy.p0.p0.i64(ptr align 4 %25, ptr align 4 %21, i64 12, i1 false)
  %70 = getelementptr inbounds nuw { <2 x float>, float }, ptr %25, i32 0, i32 0
  %71 = load <2 x float>, ptr %70, align 4
  %72 = getelementptr inbounds nuw { <2 x float>, float }, ptr %25, i32 0, i32 1
  %73 = load float, ptr %72, align 4
  %74 = call noundef float @_ZN4pbrt5NoiseENS_6Point3IfEE(<2 x float> %71, float %73)
  call void @_ZN4pbrt6Point3IfEC2Efff(ptr noundef nonnull align 4 dereferenceable(12) %10, float noundef %50, float noundef %62, float noundef %74)
  call void @llvm.lifetime.start.p0(i64 12, ptr %26) #10
  %75 = load float, ptr %7, align 4, !tbaa !4
  %76 = load float, ptr %7, align 4, !tbaa !4
  %77 = load float, ptr %7, align 4, !tbaa !4
  call void @_ZN4pbrt6Point3IfEC2Efff(ptr noundef nonnull align 4 dereferenceable(12) %27, float noundef %75, float noundef %76, float noundef %77)
  call void @llvm.memcpy.p0.p0.i64(ptr align 4 %28, ptr align 4 %27, i64 12, i1 false)
  %78 = getelementptr inbounds nuw { <2 x float>, float }, ptr %28, i32 0, i32 0
  %79 = load <2 x float>, ptr %78, align 4
  %80 = getelementptr inbounds nuw { <2 x float>, float }, ptr %28, i32 0, i32 1
  %81 = load float, ptr %80, align 4
  %82 = call { <2 x float>, float } @_ZNK4pbrt6Point3IfEmiIfEENS_7Vector3IDTmitlfEtlT_EEEENS0_IS4_EE(ptr noundef nonnull align 4 dereferenceable(12) %10, <2 x float> %79, float %81)
  %83 = getelementptr inbounds nuw %"class.pbrt::Vector3", ptr %26, i32 0, i32 0
  store { <2 x float>, float } %82, ptr %29, align 8
  call void @llvm.memcpy.p0.p0.i64(ptr align 4 %83, ptr align 8 %29, i64 12, i1 false)
  %84 = load float, ptr %6, align 4, !tbaa !4
  %85 = call { <2 x float>, float } @_ZNK4pbrt6Tuple3INS_7Vector3EfEdvIfEENS1_IDTdvtlfEtlT_EEEES4_(ptr noundef nonnull align 4 dereferenceable(12) %26, float noundef %84)
  %86 = getelementptr inbounds nuw %"class.pbrt::Vector3", ptr %3, i32 0, i32 0
  store { <2 x float>, float } %85, ptr %30, align 8
  call void @llvm.memcpy.p0.p0.i64(ptr align 4 %86, ptr align 8 %30, i64 12, i1 false)
  call void @llvm.lifetime.end.p0(i64 12, ptr %26) #10
  call void @llvm.lifetime.end.p0(i64 12, ptr %10) #10
  call void @llvm.lifetime.end.p0(i64 4, ptr %7) #10
  call void @llvm.lifetime.end.p0(i64 4, ptr %6) #10
  %87 = getelementptr inbounds nuw %"class.pbrt::Vector3", ptr %3, i32 0, i32 0
  call void @llvm.memcpy.p0.p0.i64(ptr align 8 %31, ptr align 4 %87, i64 12, i1 false)
  %88 = load { <2 x float>, float }, ptr %31, align 8
  ret { <2 x float>, float } %88
}