; Function Attrs: mustprogress nofree nounwind willreturn memory(write) uwtable
define dso_local { <2 x float>, float } @_ZN4pbrt6DNoiseENS_6Point3IfEE(<2 x float> %0, float %1) local_unnamed_addr #1 {
  %.sroa.01.0.vec.extract.i = extractelement <2 x float> %0, i64 0
  %.sroa.01.4.vec.extract.i = extractelement <2 x float> %0, i64 1
  %3 = tail call noundef float @_ZN4pbrt5NoiseEfff(float noundef %.sroa.01.0.vec.extract.i, float noundef %.sroa.01.4.vec.extract.i, float noundef %1)
  %4 = fadd float %.sroa.01.0.vec.extract.i, 0x3F847AE140000000
  %5 = fadd float %.sroa.01.4.vec.extract.i, 0.000000e+00
  %6 = fadd float %1, 0.000000e+00
  %7 = tail call noundef float @_ZN4pbrt5NoiseEfff(float noundef %4, float noundef %5, float noundef %6)
  %8 = fadd float %.sroa.01.0.vec.extract.i, 0.000000e+00
  %9 = fadd float %.sroa.01.4.vec.extract.i, 0x3F847AE140000000
  %10 = tail call noundef float @_ZN4pbrt5NoiseEfff(float noundef %8, float noundef %9, float noundef %6)
  %11 = fadd float %1, 0x3F847AE140000000
  %12 = tail call noundef float @_ZN4pbrt5NoiseEfff(float noundef %8, float noundef %5, float noundef %11)
  %13 = fsub float %7, %3
  %14 = fsub float %10, %3
  %15 = fsub float %12, %3
  %16 = fdiv float %13, 0x3F847AE140000000
  %17 = fdiv float %14, 0x3F847AE140000000
  %18 = fdiv float %15, 0x3F847AE140000000
  %.sroa.0.0.vec.insert.i77 = insertelement <2 x float> poison, float %16, i64 0
  %.sroa.0.4.vec.insert.i78 = insertelement <2 x float> %.sroa.0.0.vec.insert.i77, float %17, i64 1
  %.fca.0.insert.i79 = insertvalue { <2 x float>, float } poison, <2 x float> %.sroa.0.4.vec.insert.i78, 0
  %.fca.1.insert.i80 = insertvalue { <2 x float>, float } %.fca.0.insert.i79, float %18, 1
  ret { <2 x float>, float } %.fca.1.insert.i80
}